; Function Attrs: mustprogress uwtable
define noundef i32 @_ZNK6icu_7513TimeZoneNames19MatchInfoCollection13getNameTypeAtEi(ptr nocapture noundef nonnull readonly align 8 dereferenceable(16) %this, i32 noundef %idx) local_unnamed_addr #1 align 2 {
entry:
  %fMatches = getelementptr inbounds i8, ptr %this, i64 8
  %0 = load ptr, ptr %fMatches, align 8
  %call = tail call noundef ptr @_ZNK6icu_757UVector9elementAtEi(ptr noundef nonnull align 8 dereferenceable(40) %0, i32 noundef %idx)
  %tobool.not = icmp eq ptr %call, null
  br i1 %tobool.not, label %return, label %if.then

if.then:                                          ; preds = %entry
  %1 = load i32, ptr %call, align 8
  br label %return

return:                                           ; preds = %entry, %if.then
  %retval.0 = phi i32 [ %1, %if.then ], [ 0, %entry ]
  ret i32 %retval.0
}